target datalayout = "e-m:e-p270:32:32-p271:32:32-p272:64:64-i64:64-i128:128-f80:128-n8:16:32:64-S128"
target triple = "x86_64-pc-linux-gnu"

%struct.mi_stats_s = type { %struct.mi_stat_count_s, %struct.mi_stat_count_s, %struct.mi_stat_count_s, %struct.mi_stat_count_s, %struct.mi_stat_count_s, %struct.mi_stat_count_s, %struct.mi_stat_count_s, %struct.mi_stat_count_s, %struct.mi_stat_count_s, %struct.mi_stat_count_s, %struct.mi_stat_count_s, %struct.mi_stat_count_s, %struct.mi_stat_count_s, %struct.mi_stat_count_s, %struct.mi_stat_count_s, %struct.mi_stat_counter_s, %struct.mi_stat_counter_s, %struct.mi_stat_counter_s, %struct.mi_stat_counter_s, %struct.mi_stat_counter_s, %struct.mi_stat_counter_s, %struct.mi_stat_counter_s, %struct.mi_stat_counter_s, %struct.mi_stat_counter_s, %struct.mi_stat_counter_s, %struct.mi_stat_counter_s, %struct.mi_stat_counter_s, %struct.mi_stat_counter_s, %struct.mi_stat_counter_s }
%struct.mi_stat_count_s = type { i64, i64, i64, i64 }
%struct.mi_stat_counter_s = type { i64, i64 }
%struct.mi_commit_mask_s = type { [8 x i64] }
%struct.mi_segment_s = type { %struct.mi_memid_s, i8, i8, i64, ptr, i64, %struct.mi_commit_mask_s, %struct.mi_commit_mask_s, ptr, i8, i8, i64, i64, i64, i64, ptr, ptr, i64, i64, i32, i64, i64, [513 x %struct.mi_page_s] }
%struct.mi_memid_s = type { %union.anon, i8, i8, i8, i32 }
%union.anon = type { %struct.mi_memid_os_info }
%struct.mi_memid_os_info = type { ptr, i64 }
%struct.mi_page_s = type { i32, i32, i8, i16, i16, %union.mi_page_flags_s, i8, ptr, ptr, i16, i8, i8, i64, ptr, i64, i64, ptr, ptr, [1 x ptr] }
%union.mi_page_flags_s = type { i8 }

@_mi_stats_main = external global %struct.mi_stats_s, align 64

; Function Attrs: nounwind uwtable
define internal void @mi_commit_mask_clear(ptr noundef %0, ptr noundef %1) #0 {
  %3 = alloca ptr, align 8
  %4 = alloca ptr, align 8
  %5 = alloca i64, align 8
  store ptr %0, ptr %3, align 8, !tbaa !3
  store ptr %1, ptr %4, align 8, !tbaa !3
  call void @llvm.lifetime.start.p0(i64 8, ptr %5) #8
  store i64 0, ptr %5, align 8, !tbaa !8
  br label %6

6:                                                ; preds = %23, %2
  %7 = load i64, ptr %5, align 8, !tbaa !8
  %8 = icmp ult i64 %7, 8
  br i1 %8, label %10, label %9

9:                                                ; preds = %6
  call void @llvm.lifetime.end.p0(i64 8, ptr %5) #8
  br label %26

10:                                               ; preds = %6
  %11 = load ptr, ptr %4, align 8, !tbaa !3
  %12 = getelementptr inbounds nuw %struct.mi_commit_mask_s, ptr %11, i32 0, i32 0
  %13 = load i64, ptr %5, align 8, !tbaa !8
  %14 = getelementptr inbounds nuw [8 x i64], ptr %12, i64 0, i64 %13
  %15 = load i64, ptr %14, align 8, !tbaa !8
  %16 = xor i64 %15, -1
  %17 = load ptr, ptr %3, align 8, !tbaa !3
  %18 = getelementptr inbounds nuw %struct.mi_commit_mask_s, ptr %17, i32 0, i32 0
  %19 = load i64, ptr %5, align 8, !tbaa !8
  %20 = getelementptr inbounds nuw [8 x i64], ptr %18, i64 0, i64 %19
  %21 = load i64, ptr %20, align 8, !tbaa !8
  %22 = and i64 %21, %16
  store i64 %22, ptr %20, align 8, !tbaa !8
  br label %23

23:                                               ; preds = %10
  %24 = load i64, ptr %5, align 8, !tbaa !8
  %25 = add i64 %24, 1
  store i64 %25, ptr %5, align 8, !tbaa !8
  br label %6, !llvm.loop !108

26:                                               ; preds = %9
  ret void
}

; Function Attrs: nounwind uwtable
define hidden i64 @_mi_commit_mask_committed_size(ptr noundef %0, i64 noundef %1) #0 {
  %3 = alloca ptr, align 8
  %4 = alloca i64, align 8
  %5 = alloca i64, align 8
  %6 = alloca i64, align 8
  %7 = alloca i64, align 8
  store ptr %0, ptr %3, align 8, !tbaa !3
  store i64 %1, ptr %4, align 8, !tbaa !8
  call void @llvm.lifetime.start.p0(i64 8, ptr %5) #8
  store i64 0, ptr %5, align 8, !tbaa !8
  call void @llvm.lifetime.start.p0(i64 8, ptr %6) #8
  store i64 0, ptr %6, align 8, !tbaa !8
  br label %8

8:                                                ; preds = %41, %2
  %9 = load i64, ptr %6, align 8, !tbaa !8
  %10 = icmp ult i64 %9, 8
  br i1 %10, label %12, label %11

11:                                               ; preds = %8
  call void @llvm.lifetime.end.p0(i64 8, ptr %6) #8
  br label %44

12:                                               ; preds = %8
  call void @llvm.lifetime.start.p0(i64 8, ptr %7) #8
  %13 = load ptr, ptr %3, align 8, !tbaa !3
  %14 = getelementptr inbounds nuw %struct.mi_commit_mask_s, ptr %13, i32 0, i32 0
  %15 = load i64, ptr %6, align 8, !tbaa !8
  %16 = getelementptr inbounds nuw [8 x i64], ptr %14, i64 0, i64 %15
  %17 = load i64, ptr %16, align 8, !tbaa !8
  store i64 %17, ptr %7, align 8, !tbaa !8
  %18 = load i64, ptr %7, align 8, !tbaa !8
  %19 = xor i64 %18, -1
  %20 = icmp eq i64 %19, 0
  br i1 %20, label %21, label %24

21:                                               ; preds = %12
  %22 = load i64, ptr %5, align 8, !tbaa !8
  %23 = add i64 %22, 64
  store i64 %23, ptr %5, align 8, !tbaa !8
  br label %40

24:                                               ; preds = %12
  br label %25

25:                                               ; preds = %36, %24
  %26 = load i64, ptr %7, align 8, !tbaa !8
  %27 = icmp ne i64 %26, 0
  br i1 %27, label %28, label %39

28:                                               ; preds = %25
  %29 = load i64, ptr %7, align 8, !tbaa !8
  %30 = and i64 %29, 1
  %31 = icmp ne i64 %30, 0
  br i1 %31, label %32, label %35

32:                                               ; preds = %28
  %33 = load i64, ptr %5, align 8, !tbaa !8
  %34 = add i64 %33, 1
  store i64 %34, ptr %5, align 8, !tbaa !8
  br label %35

35:                                               ; preds = %32, %28
  br label %36

36:                                               ; preds = %35
  %37 = load i64, ptr %7, align 8, !tbaa !8
  %38 = lshr i64 %37, 1
  store i64 %38, ptr %7, align 8, !tbaa !8
  br label %25, !llvm.loop !10

39:                                               ; preds = %25
  br label %40

40:                                               ; preds = %39, %21
  call void @llvm.lifetime.end.p0(i64 8, ptr %7) #8
  br label %41

41:                                               ; preds = %40
  %42 = load i64, ptr %6, align 8, !tbaa !8
  %43 = add i64 %42, 1
  store i64 %43, ptr %6, align 8, !tbaa !8
  br label %8, !llvm.loop !12

44:                                               ; preds = %11
  %45 = load i64, ptr %4, align 8, !tbaa !8
  %46 = udiv i64 %45, 512
  %47 = load i64, ptr %5, align 8, !tbaa !8
  %48 = mul i64 %46, %47
  call void @llvm.lifetime.end.p0(i64 8, ptr %5) #8
  ret i64 %48
}

; Function Attrs: nounwind uwtable
define internal void @mi_commit_mask_create_intersect(ptr noundef %0, ptr noundef %1, ptr noundef %2) #0 {
  %4 = alloca ptr, align 8
  %5 = alloca ptr, align 8
  %6 = alloca ptr, align 8
  %7 = alloca i64, align 8
  store ptr %0, ptr %4, align 8, !tbaa !3
  store ptr %1, ptr %5, align 8, !tbaa !3
  store ptr %2, ptr %6, align 8, !tbaa !3
  call void @llvm.lifetime.start.p0(i64 8, ptr %7) #8
  store i64 0, ptr %7, align 8, !tbaa !8
  br label %8

8:                                                ; preds = %28, %3
  %9 = load i64, ptr %7, align 8, !tbaa !8
  %10 = icmp ult i64 %9, 8
  br i1 %10, label %12, label %11

11:                                               ; preds = %8
  call void @llvm.lifetime.end.p0(i64 8, ptr %7) #8
  br label %31

12:                                               ; preds = %8
  %13 = load ptr, ptr %4, align 8, !tbaa !3
  %14 = getelementptr inbounds nuw %struct.mi_commit_mask_s, ptr %13, i32 0, i32 0
  %15 = load i64, ptr %7, align 8, !tbaa !8
  %16 = getelementptr inbounds nuw [8 x i64], ptr %14, i64 0, i64 %15
  %17 = load i64, ptr %16, align 8, !tbaa !8
  %18 = load ptr, ptr %5, align 8, !tbaa !3
  %19 = getelementptr inbounds nuw %struct.mi_commit_mask_s, ptr %18, i32 0, i32 0
  %20 = load i64, ptr %7, align 8, !tbaa !8
  %21 = getelementptr inbounds nuw [8 x i64], ptr %19, i64 0, i64 %20
  %22 = load i64, ptr %21, align 8, !tbaa !8
  %23 = and i64 %17, %22
  %24 = load ptr, ptr %6, align 8, !tbaa !3
  %25 = getelementptr inbounds nuw %struct.mi_commit_mask_s, ptr %24, i32 0, i32 0
  %26 = load i64, ptr %7, align 8, !tbaa !8
  %27 = getelementptr inbounds nuw [8 x i64], ptr %25, i64 0, i64 %26
  store i64 %23, ptr %27, align 8, !tbaa !8
  br label %28

28:                                               ; preds = %12
  %29 = load i64, ptr %7, align 8, !tbaa !8
  %30 = add i64 %29, 1
  store i64 %30, ptr %7, align 8, !tbaa !8
  br label %8, !llvm.loop !107

31:                                               ; preds = %11
  ret void
}

; Function Attrs: nounwind uwtable
define internal zeroext i1 @mi_commit_mask_any_set(ptr noundef %0, ptr noundef %1) #0 {
  %3 = alloca i1, align 1
  %4 = alloca ptr, align 8
  %5 = alloca ptr, align 8
  %6 = alloca i64, align 8
  %7 = alloca i32, align 4
  store ptr %0, ptr %4, align 8, !tbaa !3
  store ptr %1, ptr %5, align 8, !tbaa !3
  call void @llvm.lifetime.start.p0(i64 8, ptr %6) #8
  store i64 0, ptr %6, align 8, !tbaa !8
  br label %8

8:                                                ; preds = %27, %2
  %9 = load i64, ptr %6, align 8, !tbaa !8
  %10 = icmp ult i64 %9, 8
  br i1 %10, label %12, label %11

11:                                               ; preds = %8
  store i32 2, ptr %7, align 4
  br label %30

12:                                               ; preds = %8
  %13 = load ptr, ptr %4, align 8, !tbaa !3
  %14 = getelementptr inbounds nuw %struct.mi_commit_mask_s, ptr %13, i32 0, i32 0
  %15 = load i64, ptr %6, align 8, !tbaa !8
  %16 = getelementptr inbounds nuw [8 x i64], ptr %14, i64 0, i64 %15
  %17 = load i64, ptr %16, align 8, !tbaa !8
  %18 = load ptr, ptr %5, align 8, !tbaa !3
  %19 = getelementptr inbounds nuw %struct.mi_commit_mask_s, ptr %18, i32 0, i32 0
  %20 = load i64, ptr %6, align 8, !tbaa !8
  %21 = getelementptr inbounds nuw [8 x i64], ptr %19, i64 0, i64 %20
  %22 = load i64, ptr %21, align 8, !tbaa !8
  %23 = and i64 %17, %22
  %24 = icmp ne i64 %23, 0
  br i1 %24, label %25, label %26

25:                                               ; preds = %12
  store i1 true, ptr %3, align 1
  store i32 1, ptr %7, align 4
  br label %30

26:                                               ; preds = %12
  br label %27

27:                                               ; preds = %26
  %28 = load i64, ptr %6, align 8, !tbaa !8
  %29 = add i64 %28, 1
  store i64 %29, ptr %6, align 8, !tbaa !8
  br label %8, !llvm.loop !106

30:                                               ; preds = %25, %11
  call void @llvm.lifetime.end.p0(i64 8, ptr %6) #8
  %31 = load i32, ptr %7, align 4
  switch i32 %31, label %35 [
    i32 2, label %32
    i32 1, label %33
  ]

32:                                               ; preds = %30
  store i1 false, ptr %3, align 1
  br label %33

33:                                               ; preds = %32, %30
  %34 = load i1, ptr %3, align 1
  ret i1 %34

35:                                               ; preds = %30
  unreachable
}

; Function Attrs: inlinehint nounwind uwtable
define internal zeroext i1 @mi_commit_mask_is_empty(ptr noundef %0) #2 {
  %2 = alloca i1, align 1
  %3 = alloca ptr, align 8
  %4 = alloca i64, align 8
  %5 = alloca i32, align 4
  store ptr %0, ptr %3, align 8, !tbaa !3
  call void @llvm.lifetime.start.p0(i64 8, ptr %4) #8
  store i64 0, ptr %4, align 8, !tbaa !8
  br label %6

6:                                                ; preds = %19, %1
  %7 = load i64, ptr %4, align 8, !tbaa !8
  %8 = icmp ult i64 %7, 8
  br i1 %8, label %10, label %9

9:                                                ; preds = %6
  store i32 2, ptr %5, align 4
  br label %22

10:                                               ; preds = %6
  %11 = load ptr, ptr %3, align 8, !tbaa !3
  %12 = getelementptr inbounds nuw %struct.mi_commit_mask_s, ptr %11, i32 0, i32 0
  %13 = load i64, ptr %4, align 8, !tbaa !8
  %14 = getelementptr inbounds nuw [8 x i64], ptr %12, i64 0, i64 %13
  %15 = load i64, ptr %14, align 8, !tbaa !8
  %16 = icmp ne i64 %15, 0
  br i1 %16, label %17, label %18

17:                                               ; preds = %10
  store i1 false, ptr %2, align 1
  store i32 1, ptr %5, align 4
  br label %22

18:                                               ; preds = %10
  br label %19

19:                                               ; preds = %18
  %20 = load i64, ptr %4, align 8, !tbaa !8
  %21 = add i64 %20, 1
  store i64 %21, ptr %4, align 8, !tbaa !8
  br label %6, !llvm.loop !102

22:                                               ; preds = %17, %9
  call void @llvm.lifetime.end.p0(i64 8, ptr %4) #8
  %23 = load i32, ptr %5, align 4
  switch i32 %23, label %27 [
    i32 2, label %24
    i32 1, label %25
  ]

24:                                               ; preds = %22
  store i1 true, ptr %2, align 1
  br label %25

25:                                               ; preds = %24, %22
  %26 = load i1, ptr %2, align 1
  ret i1 %26

27:                                               ; preds = %22
  unreachable
}

; Function Attrs: nounwind uwtable
define internal zeroext i1 @mi_segment_purge(ptr noundef %0, ptr noundef %1, i64 noundef %2) #0 {
  %4 = alloca i1, align 1
  %5 = alloca ptr, align 8
  %6 = alloca ptr, align 8
  %7 = alloca i64, align 8
  %8 = alloca ptr, align 8
  %9 = alloca i64, align 8
  %10 = alloca %struct.mi_commit_mask_s, align 8
  %11 = alloca i32, align 4
  %12 = alloca i8, align 1
  %13 = alloca %struct.mi_commit_mask_s, align 8
  store ptr %0, ptr %5, align 8, !tbaa !19
  store ptr %1, ptr %6, align 8, !tbaa !23
  store i64 %2, ptr %7, align 8, !tbaa !8
  %14 = load ptr, ptr %5, align 8, !tbaa !19
  %15 = getelementptr inbounds nuw %struct.mi_segment_s, ptr %14, i32 0, i32 2
  %16 = load i8, ptr %15, align 1, !tbaa !35, !range !33, !noundef !34
  %17 = trunc i8 %16 to i1
  br i1 %17, label %19, label %18

18:                                               ; preds = %3
  store i1 true, ptr %4, align 1
  br label %52

19:                                               ; preds = %3
  call void @llvm.lifetime.start.p0(i64 8, ptr %8) #8
  store ptr null, ptr %8, align 8, !tbaa !23
  call void @llvm.lifetime.start.p0(i64 8, ptr %9) #8
  store i64 0, ptr %9, align 8, !tbaa !8
  call void @llvm.lifetime.start.p0(i64 64, ptr %10) #8
  %20 = load ptr, ptr %5, align 8, !tbaa !19
  %21 = load ptr, ptr %6, align 8, !tbaa !23
  %22 = load i64, ptr %7, align 8, !tbaa !8
  call void @mi_segment_commit_mask(ptr noundef %20, i1 noundef zeroext true, ptr noundef %21, i64 noundef %22, ptr noundef %8, ptr noundef %9, ptr noundef %10) #9
  %23 = call zeroext i1 @mi_commit_mask_is_empty(ptr noundef %10) #9
  br i1 %23, label %27, label %24

24:                                               ; preds = %19
  %25 = load i64, ptr %9, align 8, !tbaa !8
  %26 = icmp eq i64 %25, 0
  br i1 %26, label %27, label %28

27:                                               ; preds = %24, %19
  store i1 true, ptr %4, align 1
  store i32 1, ptr %11, align 4
  br label %51

28:                                               ; preds = %24
  %29 = load ptr, ptr %5, align 8, !tbaa !19
  %30 = getelementptr inbounds nuw %struct.mi_segment_s, ptr %29, i32 0, i32 7
  %31 = call zeroext i1 @mi_commit_mask_any_set(ptr noundef %30, ptr noundef %10) #9
  br i1 %31, label %32, label %48

32:                                               ; preds = %28
  call void @llvm.lifetime.start.p0(i64 1, ptr %12) #8
  %33 = load ptr, ptr %8, align 8, !tbaa !23
  %34 = load i64, ptr %9, align 8, !tbaa !8
  %35 = call zeroext i1 @_mi_os_purge(ptr noundef %33, i64 noundef %34) #9
  %36 = zext i1 %35 to i8
  store i8 %36, ptr %12, align 1, !tbaa !31
  %37 = load i8, ptr %12, align 1, !tbaa !31, !range !33, !noundef !34
  %38 = trunc i8 %37 to i1
  br i1 %38, label %39, label %47

39:                                               ; preds = %32
  call void @llvm.lifetime.start.p0(i64 64, ptr %13) #8
  %40 = load ptr, ptr %5, align 8, !tbaa !19
  %41 = getelementptr inbounds nuw %struct.mi_segment_s, ptr %40, i32 0, i32 7
  call void @mi_commit_mask_create_intersect(ptr noundef %41, ptr noundef %10, ptr noundef %13) #9
  %42 = load i64, ptr %9, align 8, !tbaa !8
  %43 = call i64 @_mi_commit_mask_committed_size(ptr noundef %13, i64 noundef 33554432) #9
  %44 = sub i64 %42, %43
  call void @_mi_stat_increase(ptr noundef getelementptr inbounds nuw (%struct.mi_stats_s, ptr @_mi_stats_main, i32 0, i32 3), i64 noundef %44) #9
  %45 = load ptr, ptr %5, align 8, !tbaa !19
  %46 = getelementptr inbounds nuw %struct.mi_segment_s, ptr %45, i32 0, i32 7
  call void @mi_commit_mask_clear(ptr noundef %46, ptr noundef %10) #9
  call void @llvm.lifetime.end.p0(i64 64, ptr %13) #8
  br label %47

47:                                               ; preds = %39, %32
  call void @llvm.lifetime.end.p0(i64 1, ptr %12) #8
  br label %48

48:                                               ; preds = %47, %28
  %49 = load ptr, ptr %5, align 8, !tbaa !19
  %50 = getelementptr inbounds nuw %struct.mi_segment_s, ptr %49, i32 0, i32 6
  call void @mi_commit_mask_clear(ptr noundef %50, ptr noundef %10) #9
  store i1 true, ptr %4, align 1
  store i32 1, ptr %11, align 4
  br label %51

51:                                               ; preds = %48, %27
  call void @llvm.lifetime.end.p0(i64 64, ptr %10) #8
  call void @llvm.lifetime.end.p0(i64 8, ptr %9) #8
  call void @llvm.lifetime.end.p0(i64 8, ptr %8) #8
  br label %52

52:                                               ; preds = %51, %18
  %53 = load i1, ptr %4, align 1
  ret i1 %53
}