; Function Attrs: nounwind uwtable
define internal fastcc void @mi_segment_purge(ptr noundef %0, ptr noundef %1, i64 noundef %2) unnamed_addr #4 {
  %4 = alloca ptr, align 8
  %5 = alloca i64, align 8
  %6 = alloca %struct.mi_commit_mask_s, align 8
  %7 = alloca %struct.mi_commit_mask_s, align 8
  %8 = getelementptr inbounds nuw i8, ptr %0, i64 25
  %9 = load i8, ptr %8, align 1, !tbaa !23, !range !30, !noundef !31
  %10 = trunc nuw i8 %9 to i1
  br i1 %10, label %11, label %66

11:                                               ; preds = %3
  call void @llvm.lifetime.start.p0(i64 8, ptr nonnull %4) #12
  store ptr null, ptr %4, align 8, !tbaa !101
  call void @llvm.lifetime.start.p0(i64 8, ptr nonnull %5) #12
  store i64 0, ptr %5, align 8, !tbaa !3
  call void @llvm.lifetime.start.p0(i64 64, ptr nonnull %6) #12
  call fastcc void @mi_segment_commit_mask(ptr noundef nonnull %0, i1 noundef zeroext true, ptr noundef %1, i64 noundef %2, ptr noundef %4, ptr noundef %5, ptr noundef %6) #10
  br label %12

12:                                               ; preds = %12, %11
  %.057.i = phi i64 [ 0, %11 ], [ %15, %12 ]
  %13 = getelementptr inbounds nuw [8 x i64], ptr %6, i64 0, i64 %.057.i
  %14 = load i64, ptr %13, align 8, !tbaa !3
  %.not.i = icmp eq i64 %14, 0
  %15 = add nuw nsw i64 %.057.i, 1
  %exitcond.i = icmp ne i64 %15, 8
  %or.cond.not.i = select i1 %.not.i, i1 %exitcond.i, i1 false
  br i1 %or.cond.not.i, label %12, label %mi_commit_mask_is_empty.exit, !llvm.loop !33

mi_commit_mask_is_empty.exit:                     ; preds = %12
  %16 = load i64, ptr %5, align 8
  %17 = icmp eq i64 %16, 0
  %or.cond = select i1 %.not.i, i1 true, i1 %17
  br i1 %or.cond, label %mi_commit_mask_clear.exit16, label %18

18:                                               ; preds = %mi_commit_mask_is_empty.exit
  %19 = getelementptr inbounds nuw i8, ptr %0, i64 120
  br label %20

20:                                               ; preds = %20, %18
  %.079.i = phi i64 [ 0, %18 ], [ %26, %20 ]
  %21 = getelementptr inbounds nuw [8 x i64], ptr %19, i64 0, i64 %.079.i
  %22 = load i64, ptr %21, align 8, !tbaa !3
  %23 = getelementptr inbounds nuw [8 x i64], ptr %6, i64 0, i64 %.079.i
  %24 = load i64, ptr %23, align 8, !tbaa !3
  %25 = and i64 %24, %22
  %.not.not.i = icmp ne i64 %25, 0
  %26 = add nuw nsw i64 %.079.i, 1
  %exitcond.not.i = icmp eq i64 %26, 8
  %or.cond.i = select i1 %.not.not.i, i1 true, i1 %exitcond.not.i
  br i1 %or.cond.i, label %mi_commit_mask_any_set.exit, label %20, !llvm.loop !102

mi_commit_mask_any_set.exit:                      ; preds = %20
  br i1 %.not.not.i, label %27, label %56

27:                                               ; preds = %mi_commit_mask_any_set.exit
  %28 = load ptr, ptr %4, align 8, !tbaa !101
  %29 = tail call zeroext i1 @_mi_os_purge(ptr noundef %28, i64 noundef %16) #11
  br i1 %29, label %30, label %56

30:                                               ; preds = %27
  call void @llvm.lifetime.start.p0(i64 64, ptr nonnull %7) #12
  br label %31

31:                                               ; preds = %31, %30
  %.07.i = phi i64 [ 0, %30 ], [ %38, %31 ]
  %32 = getelementptr inbounds nuw [8 x i64], ptr %19, i64 0, i64 %.07.i
  %33 = load i64, ptr %32, align 8, !tbaa !3
  %34 = getelementptr inbounds nuw [8 x i64], ptr %6, i64 0, i64 %.07.i
  %35 = load i64, ptr %34, align 8, !tbaa !3
  %36 = and i64 %35, %33
  %37 = getelementptr inbounds nuw [8 x i64], ptr %7, i64 0, i64 %.07.i
  store i64 %36, ptr %37, align 8, !tbaa !3
  %38 = add nuw nsw i64 %.07.i, 1
  %exitcond.not.i10 = icmp eq i64 %38, 8
  br i1 %exitcond.not.i10, label %mi_commit_mask_create_intersect.exit, label %31, !llvm.loop !103

mi_commit_mask_create_intersect.exit:             ; preds = %31, %.loopexit.i
  %.01118.i = phi i64 [ %45, %.loopexit.i ], [ 0, %31 ]
  %.01217.i = phi i64 [ %.1.i, %.loopexit.i ], [ 0, %31 ]
  %39 = getelementptr inbounds nuw [8 x i64], ptr %7, i64 0, i64 %.01118.i
  %40 = load i64, ptr %39, align 8, !tbaa !3
  switch i64 %40, label %.lr.ph.i [
    i64 -1, label %41
    i64 0, label %.loopexit.i
  ]

41:                                               ; preds = %mi_commit_mask_create_intersect.exit
  %42 = add i64 %.01217.i, 64
  br label %.loopexit.i

.lr.ph.i:                                         ; preds = %mi_commit_mask_create_intersect.exit, %.lr.ph.i
  %.016.i = phi i64 [ %44, %.lr.ph.i ], [ %40, %mi_commit_mask_create_intersect.exit ]
  %.215.i = phi i64 [ %spec.select.i, %.lr.ph.i ], [ %.01217.i, %mi_commit_mask_create_intersect.exit ]
  %43 = and i64 %.016.i, 1
  %spec.select.i = add i64 %43, %.215.i
  %44 = lshr i64 %.016.i, 1
  %.not.i12 = icmp ult i64 %.016.i, 2
  br i1 %.not.i12, label %.loopexit.i, label %.lr.ph.i, !llvm.loop !7

.loopexit.i:                                      ; preds = %.lr.ph.i, %41, %mi_commit_mask_create_intersect.exit
  %.1.i = phi i64 [ %42, %41 ], [ %.01217.i, %mi_commit_mask_create_intersect.exit ], [ %spec.select.i, %.lr.ph.i ]
  %45 = add nuw nsw i64 %.01118.i, 1
  %exitcond.not.i11 = icmp eq i64 %45, 8
  br i1 %exitcond.not.i11, label %_mi_commit_mask_committed_size.exit, label %mi_commit_mask_create_intersect.exit, !llvm.loop !9

_mi_commit_mask_committed_size.exit:              ; preds = %.loopexit.i
  %46 = shl i64 %.1.i, 16
  %47 = sub i64 %16, %46
  tail call void @_mi_stat_increase(ptr noundef nonnull getelementptr inbounds nuw (i8, ptr @_mi_stats_main, i64 96), i64 noundef %47) #11
  br label %48

48:                                               ; preds = %48, %_mi_commit_mask_committed_size.exit
  %.05.i = phi i64 [ 0, %_mi_commit_mask_committed_size.exit ], [ %55, %48 ]
  %49 = getelementptr inbounds nuw [8 x i64], ptr %6, i64 0, i64 %.05.i
  %50 = load i64, ptr %49, align 8, !tbaa !3
  %51 = xor i64 %50, -1
  %52 = getelementptr inbounds nuw [8 x i64], ptr %19, i64 0, i64 %.05.i
  %53 = load i64, ptr %52, align 8, !tbaa !3
  %54 = and i64 %53, %51
  store i64 %54, ptr %52, align 8, !tbaa !3
  %55 = add nuw nsw i64 %.05.i, 1
  %exitcond.not.i13 = icmp eq i64 %55, 8
  br i1 %exitcond.not.i13, label %mi_commit_mask_clear.exit, label %48, !llvm.loop !104

mi_commit_mask_clear.exit:                        ; preds = %48
  call void @llvm.lifetime.end.p0(i64 64, ptr nonnull %7) #12
  br label %56

56:                                               ; preds = %27, %mi_commit_mask_clear.exit, %mi_commit_mask_any_set.exit
  %57 = getelementptr inbounds nuw i8, ptr %0, i64 56
  br label %58

58:                                               ; preds = %58, %56
  %.05.i14 = phi i64 [ 0, %56 ], [ %65, %58 ]
  %59 = getelementptr inbounds nuw [8 x i64], ptr %6, i64 0, i64 %.05.i14
  %60 = load i64, ptr %59, align 8, !tbaa !3
  %61 = xor i64 %60, -1
  %62 = getelementptr inbounds nuw [8 x i64], ptr %57, i64 0, i64 %.05.i14
  %63 = load i64, ptr %62, align 8, !tbaa !3
  %64 = and i64 %63, %61
  store i64 %64, ptr %62, align 8, !tbaa !3
  %65 = add nuw nsw i64 %.05.i14, 1
  %exitcond.not.i15 = icmp eq i64 %65, 8
  br i1 %exitcond.not.i15, label %mi_commit_mask_clear.exit16, label %58, !llvm.loop !104

mi_commit_mask_clear.exit16:                      ; preds = %58, %mi_commit_mask_is_empty.exit
  call void @llvm.lifetime.end.p0(i64 64, ptr nonnull %6) #12
  call void @llvm.lifetime.end.p0(i64 8, ptr nonnull %5) #12
  call void @llvm.lifetime.end.p0(i64 8, ptr nonnull %4) #12
  br label %66

66:                                               ; preds = %3, %mi_commit_mask_clear.exit16
  ret void
}